; Function Attrs: nounwind uwtable
define dso_local noundef zeroext i1 @restriction_is_always_false(ptr noundef %0, ptr noundef %1) local_unnamed_addr #0 {
  %3 = getelementptr inbounds nuw i8, ptr %1, i64 8
  %4 = load ptr, ptr %3, align 8
  %5 = load i32, ptr %4, align 4
  %6 = icmp eq i32 %5, 52
  br i1 %6, label %7, label %35

7:                                                ; preds = %2
  %8 = getelementptr inbounds nuw i8, ptr %4, i64 16
  %9 = load i32, ptr %8, align 8
  %.not23 = icmp eq i32 %9, 0
  br i1 %.not23, label %10, label %.critedge25

10:                                               ; preds = %7
  %11 = getelementptr inbounds nuw i8, ptr %4, i64 8
  %12 = load ptr, ptr %11, align 8
  %13 = load i32, ptr %12, align 4
  %14 = icmp eq i32 %13, 6
  br i1 %14, label %15, label %.critedge25

15:                                               ; preds = %10
  %16 = getelementptr inbounds nuw i8, ptr %12, i64 24
  %17 = load ptr, ptr %16, align 8
  %18 = icmp eq ptr %17, null
  br i1 %18, label %19, label %.critedge25

19:                                               ; preds = %15
  %20 = getelementptr inbounds nuw i8, ptr %12, i64 8
  %21 = load i16, ptr %20, align 8
  %22 = icmp slt i16 %21, 0
  br i1 %22, label %.critedge25, label %23

23:                                               ; preds = %19
  %24 = getelementptr inbounds nuw i8, ptr %12, i64 4
  %25 = load i32, ptr %24, align 4
  %26 = tail call ptr @find_base_rel(ptr noundef %0, i32 noundef %25) #7
  %27 = load i16, ptr %20, align 8
  %28 = icmp sgt i16 %27, 0
  br i1 %28, label %29, label %34

29:                                               ; preds = %23
  %30 = zext nneg i16 %27 to i32
  %31 = getelementptr inbounds nuw i8, ptr %26, i64 144
  %32 = load ptr, ptr %31, align 8
  %33 = tail call zeroext i1 @bms_is_member(i32 noundef %30, ptr noundef %32) #7
  br i1 %33, label %.critedge25, label %34

34:                                               ; preds = %29, %23
  br label %.critedge25

35:                                               ; preds = %2
  %36 = tail call zeroext i1 @restriction_is_or_clause(ptr noundef nonnull %1) #7
  br i1 %36, label %37, label %.critedge25

37:                                               ; preds = %35
  %38 = getelementptr inbounds nuw i8, ptr %1, i64 88
  %39 = load ptr, ptr %38, align 8
  %40 = getelementptr inbounds nuw i8, ptr %39, i64 8
  %41 = load ptr, ptr %40, align 8
  %42 = getelementptr inbounds nuw i8, ptr %41, i64 4
  %43 = getelementptr inbounds nuw i8, ptr %41, i64 16
  %.not = icmp eq ptr %41, null
  br i1 %.not, label %.critedge25, label %.lr.ph.split

.lr.ph.split:                                     ; preds = %37
  %44 = load i32, ptr %42, align 4
  %45 = icmp sgt i32 %44, 0
  br i1 %45, label %.lr.ph38, label %.critedge25

46:                                               ; preds = %.critedge
  %indvars.iv.next = add nuw nsw i64 %indvars.iv, 1
  %47 = load i32, ptr %42, align 4
  %48 = sext i32 %47 to i64
  %49 = icmp slt i64 %indvars.iv.next, %48
  br i1 %49, label %.lr.ph38, label %.critedge25

.lr.ph38:                                         ; preds = %.lr.ph.split, %46
  %indvars.iv = phi i64 [ %indvars.iv.next, %46 ], [ 0, %.lr.ph.split ]
  %50 = load ptr, ptr %43, align 8
  %51 = getelementptr inbounds nuw %union.ListCell, ptr %50, i64 %indvars.iv
  %52 = load ptr, ptr %51, align 8
  %53 = load i32, ptr %52, align 4
  %54 = icmp eq i32 %53, 317
  br i1 %54, label %.critedge, label %.critedge25

.critedge:                                        ; preds = %.lr.ph38
  %55 = tail call zeroext i1 @restriction_is_always_false(ptr noundef %0, ptr noundef nonnull %52)
  br i1 %55, label %46, label %.critedge25

.critedge25:                                      ; preds = %.critedge, %.lr.ph38, %46, %37, %.lr.ph.split, %34, %29, %19, %15, %10, %35, %7
  %.1 = phi i1 [ false, %7 ], [ false, %35 ], [ false, %34 ], [ false, %10 ], [ false, %15 ], [ true, %19 ], [ true, %29 ], [ true, %37 ], [ true, %.lr.ph.split ], [ false, %.critedge ], [ false, %.lr.ph38 ], [ true, %46 ]
  ret i1 %.1
}